(dp0
S'session'
p1
I3
sS'virtual'
p2
I10
sS'systemstring'
p3
I1
sS'query'
p4
I13
sS'environment'
p5
I5
sS'platform'
p6
I5
sS'collections'
p7
I3
sS'leaderboard'
p8
I14
sS'returned'
p9
I4
sS'void'
p10
I5
sS'password'
p11
I2
sS'userid'
p12
I4
sS'upload'
p13
I4
sS'server'
p14
I31
sS'token'
p15
I4
sS'harness'
p16
I22
sS'mode'
p17
I3
sS'debug'
p18
I7
sS'challenge'
p19
I7
sS'logs'
p20
I5
sS'testing'
p21
I10
sS'module'
p22
I14
sS'tutorial'
p23
I8
sS'authenticate'
p24
I2
sS'notification'
p25
I8
sS'integration'
p26
I2
sS'filename'
p27
I3
sS'access'
p28
I22
sS'connecting'
p29
I4
sS'public'
p30
I1
sS'javascript'
p31
I7
sS'configuration'
p32
I4
sS'plugin'
p33
I5
sS'requests'
p34
I10
sS'runtime'
p35
I8
sS'load'
p36
I8
sS'dont'
p37
I34
sS'app'
p38
I14
sS'scene'
p39
I1
sS'rank'
p40
I6
sS'servers'
p41
I5
sS'services'
p42
I2
sS'api'
p43
I24
sS'array'
p44
I6
sS'backend'
p45
I6
sS'script'
p46
I35
sS'logevent'
p47
I3
sS'supportgamesparkscom'
p48
I4
sS'editor'
p49
I4
sS'doesnt'
p50
I21
sS'preview'
p51
I17
sS'shortcode'
p52
I1
sS'username'
p53
I3
sS'registered'
p54
I5
sS'notifications'
p55
I5
sS'debuglog'
p56
I1
sS'sdk'
p57
I14
sS'exception'
p58
I1
sS'runtimecollection'
p59
I3
sS'setup'
p60
I7
sS'devices'
p61
I1
sS'achieve'
p62
I9
sS'display'
p63
I5
sS'function'
p64
I22
sS'websocket'
p65
I1
sS'mongo'
p66
I4
sS'challengeshortcode'
p67
I1
sS'null'
p68
I8
sS'authenticated'
p69
I1
sS'playerid'
p70
I10
sS'feature'
p71
I8
sS'invalid'
p72
I2
sS'application'
p73
I4
sS'functionality'
p74
I7
sS'online'
p75
I4
sS'document'
p76
I5
sS'events'
p77
I13
sS'users'
p78
I11
sS'oid'
p79
I7
sS'update'
p80
I15
sS'collection'
p81
I25
sS'running'
p82
I17
sS'connected'
p83
I3
sS'user'
p84
I23
sS'scripts'
p85
I8
sS'device'
p86
I7
sS'data'
p87
I39
sS'login'
p88
I8
sS'database'
p89
I1
sS'request'
p90
I32
sS'callback'
p91
I10
sS'client'
p92
I8
sS'snapshot'
p93
I9
s.